; Function Attrs: mustprogress uwtable
define { ptr, i32 } @_ZN2cv15ImageCollection4Impl3endEPS0_(ptr noundef nonnull readonly align 8 captures(none) dereferenceable(104) %0, ptr noundef %1) local_unnamed_addr #4 align 2 {
  %3 = alloca %"struct.cv::ImageCollection::iterator", align 8
  %4 = getelementptr inbounds nuw i8, ptr %0, i64 40
  %5 = load i64, ptr %4, align 8, !tbaa !131
  %6 = trunc i64 %5 to i32
  call void @_ZN2cv15ImageCollection8iteratorC1EPS0_i(ptr noundef nonnull align 8 dereferenceable(12) %3, ptr noundef %1, i32 noundef %6)
  %.fca.0.load = load ptr, ptr %3, align 8
  %.fca.0.insert = insertvalue { ptr, i32 } poison, ptr %.fca.0.load, 0
  %.fca.1.gep = getelementptr inbounds nuw i8, ptr %3, i64 8
  %.fca.1.load = load i32, ptr %.fca.1.gep, align 8
  %.fca.1.insert = insertvalue { ptr, i32 } %.fca.0.insert, i32 %.fca.1.load, 1
  ret { ptr, i32 } %.fca.1.insert
}